; Function Attrs: nounwind uwtable
define dso_local ptr @get_relids_for_join(ptr noundef readonly captures(none) %0, i32 noundef %1) local_unnamed_addr #0 {
  %3 = getelementptr inbounds nuw i8, ptr %0, i64 80
  %4 = load ptr, ptr %3, align 8
  %5 = tail call fastcc ptr @find_jointree_node_for_rel(ptr noundef %4, i32 noundef %1)
  %.not = icmp eq ptr %5, null
  br i1 %.not, label %6, label %9

6:                                                ; preds = %2
  %7 = tail call zeroext i1 @errstart_cold(i32 noundef 21, ptr noundef null) #8
  tail call void @llvm.assume(i1 %7)
  %8 = tail call i32 (ptr, ...) @errmsg_internal(ptr noundef nonnull @.str.6, i32 noundef %1) #7
  tail call void @errfinish(ptr noundef nonnull @.str.2, i32 noundef 4197, ptr noundef nonnull @__func__.get_relids_for_join) #7
  unreachable

9:                                                ; preds = %2
  %10 = tail call ptr @get_relids_in_jointree(ptr noundef nonnull %5, i1 noundef zeroext true, i1 noundef zeroext false)
  ret ptr %10
}